target datalayout = "e-m:e-p270:32:32-p271:32:32-p272:64:64-i64:64-i128:128-f80:128-n8:16:32:64-S128"
target triple = "x86_64-pc-linux-gnu"

%"class.icu_77::NFRule" = type { i64, i32, i16, i16, %"class.icu_77::UnicodeString", ptr, ptr, ptr, ptr }
%"class.icu_77::UnicodeString" = type { %"class.icu_77::Replaceable", %"union.icu_77::UnicodeString::StackBufferOrFields" }
%"class.icu_77::Replaceable" = type { %"class.icu_77::UObject" }
%"class.icu_77::UObject" = type { ptr }
%"union.icu_77::UnicodeString::StackBufferOrFields" = type { %struct.anon.0, [32 x i8] }
%struct.anon.0 = type { i16, i32, i32, ptr }

; Function Attrs: mustprogress uwtable
define noundef zeroext i1 @_ZNK6icu_776NFRule22hasModulusSubstitutionEv(ptr noundef nonnull align 8 dereferenceable(112) %0) #0 align 2 {
  %2 = alloca ptr, align 8
  store ptr %0, ptr %2, align 8, !tbaa !3
  %3 = load ptr, ptr %2, align 8
  %4 = getelementptr inbounds nuw %"class.icu_77::NFRule", ptr %3, i32 0, i32 5
  %5 = load ptr, ptr %4, align 8, !tbaa !27
  %6 = icmp ne ptr %5, null
  br i1 %6, label %7, label %15

7:                                                ; preds = %1
  %8 = getelementptr inbounds nuw %"class.icu_77::NFRule", ptr %3, i32 0, i32 5
  %9 = load ptr, ptr %8, align 8, !tbaa !27
  %10 = load ptr, ptr %9, align 8, !tbaa !42
  %11 = getelementptr inbounds ptr, ptr %10, i64 14
  %12 = load ptr, ptr %11, align 8
  %13 = call noundef signext i8 %12(ptr noundef nonnull align 8 dereferenceable(32) %9)
  %14 = icmp ne i8 %13, 0
  br i1 %14, label %29, label %15

15:                                               ; preds = %7, %1
  %16 = getelementptr inbounds nuw %"class.icu_77::NFRule", ptr %3, i32 0, i32 6
  %17 = load ptr, ptr %16, align 8, !tbaa !28
  %18 = icmp ne ptr %17, null
  br i1 %18, label %19, label %27

19:                                               ; preds = %15
  %20 = getelementptr inbounds nuw %"class.icu_77::NFRule", ptr %3, i32 0, i32 6
  %21 = load ptr, ptr %20, align 8, !tbaa !28
  %22 = load ptr, ptr %21, align 8, !tbaa !42
  %23 = getelementptr inbounds ptr, ptr %22, i64 14
  %24 = load ptr, ptr %23, align 8
  %25 = call noundef signext i8 %24(ptr noundef nonnull align 8 dereferenceable(32) %21)
  %26 = icmp ne i8 %25, 0
  br label %27

27:                                               ; preds = %19, %15
  %28 = phi i1 [ false, %15 ], [ %26, %19 ]
  br label %29

29:                                               ; preds = %27, %7
  %30 = phi i1 [ true, %7 ], [ %28, %27 ]
  ret i1 %30
}