; Function Attrs: mustprogress uwtable
define noundef zeroext i1 @_ZNK6icu_776NFRule22hasModulusSubstitutionEv(ptr noundef nonnull readonly align 8 captures(none) dereferenceable(112) %0) local_unnamed_addr #0 align 2 {
  %2 = getelementptr inbounds nuw i8, ptr %0, i64 80
  %3 = load ptr, ptr %2, align 8, !tbaa !38
  %.not = icmp eq ptr %3, null
  br i1 %.not, label %9, label %4

4:                                                ; preds = %1
  %5 = load ptr, ptr %3, align 8, !tbaa !24
  %6 = getelementptr inbounds nuw i8, ptr %5, i64 112
  %7 = load ptr, ptr %6, align 8
  %8 = tail call noundef signext i8 %7(ptr noundef nonnull align 8 dereferenceable(32) %3)
  %.not2 = icmp eq i8 %8, 0
  br i1 %.not2, label %9, label %18

9:                                                ; preds = %4, %1
  %10 = getelementptr inbounds nuw i8, ptr %0, i64 88
  %11 = load ptr, ptr %10, align 8, !tbaa !39
  %.not3 = icmp eq ptr %11, null
  br i1 %.not3, label %18, label %12

12:                                               ; preds = %9
  %13 = load ptr, ptr %11, align 8, !tbaa !24
  %14 = getelementptr inbounds nuw i8, ptr %13, i64 112
  %15 = load ptr, ptr %14, align 8
  %16 = tail call noundef signext i8 %15(ptr noundef nonnull align 8 dereferenceable(32) %11)
  %17 = icmp ne i8 %16, 0
  br label %18

18:                                               ; preds = %9, %12, %4
  %19 = phi i1 [ true, %4 ], [ false, %9 ], [ %17, %12 ]
  ret i1 %19
}